; Function Attrs: mustprogress nounwind uwtable
define hidden void @_ZN7aig_refD2Ev(ptr noundef nonnull readonly align 8 captures(none) dereferenceable(16) %0) unnamed_addr #5 align 2 personality ptr @__gxx_personality_v0 {
  %2 = getelementptr inbounds nuw i8, ptr %0, i64 8
  %3 = load ptr, ptr %2, align 8, !tbaa !12
  %.not = icmp eq ptr %3, null
  br i1 %.not, label %_ZN11aig_manager3imp7dec_refERK7aig_lit.exit, label %4

4:                                                ; preds = %1
  %5 = load ptr, ptr %0, align 8, !tbaa !3
  %6 = load ptr, ptr %5, align 8, !tbaa !16
  %7 = ptrtoint ptr %3 to i64
  %8 = and i64 %7, -2
  %9 = inttoptr i64 %8 to ptr
  %10 = getelementptr inbounds nuw i8, ptr %9, i64 4
  %11 = load i32, ptr %10, align 4, !tbaa !13
  %12 = add i32 %11, -1
  store i32 %12, ptr %10, align 4, !tbaa !13
  %13 = icmp eq i32 %12, 0
  %14 = getelementptr inbounds nuw i8, ptr %6, i64 640
  %15 = load ptr, ptr %14, align 8, !tbaa !19
  %16 = icmp eq ptr %15, null
  br i1 %13, label %17, label %_ZN11aig_manager3imp12dec_ref_coreEP3aig.exit.i.i

17:                                               ; preds = %4
  br i1 %16, label %24, label %18

18:                                               ; preds = %17
  %19 = getelementptr inbounds i8, ptr %15, i64 -4
  %20 = load i32, ptr %19, align 4, !tbaa !23
  %21 = getelementptr inbounds i8, ptr %15, i64 -8
  %22 = load i32, ptr %21, align 4, !tbaa !23
  %23 = icmp eq i32 %20, %22
  br i1 %23, label %24, label %_ZN11aig_manager3imp12dec_ref_coreEP3aig.exit.thread.i.i

24:                                               ; preds = %18, %17
  invoke void @_ZN6vectorIP3aigLb0EjE13expand_vectorEv(ptr noundef nonnull align 8 dereferenceable(8) %14)
          to label %.noexc unwind label %.loopexit.split-lp

.noexc:                                           ; preds = %24
  %.pre.i.i.i.i = load ptr, ptr %14, align 8, !tbaa !19
  %.phi.trans.insert.i.i.i.i = getelementptr inbounds i8, ptr %.pre.i.i.i.i, i64 -4
  %.pre2.i.i.i.i = load i32, ptr %.phi.trans.insert.i.i.i.i, align 4, !tbaa !23
  br label %_ZN11aig_manager3imp12dec_ref_coreEP3aig.exit.thread.i.i

_ZN11aig_manager3imp12dec_ref_coreEP3aig.exit.thread.i.i: ; preds = %.noexc, %18
  %25 = phi i32 [ %.pre2.i.i.i.i, %.noexc ], [ %20, %18 ]
  %26 = phi ptr [ %.pre.i.i.i.i, %.noexc ], [ %15, %18 ]
  %27 = getelementptr inbounds i8, ptr %26, i64 -4
  %28 = zext i32 %25 to i64
  %29 = getelementptr inbounds nuw ptr, ptr %26, i64 %28
  store ptr %9, ptr %29, align 8, !tbaa !24
  %30 = add i32 %25, 1
  store i32 %30, ptr %27, align 4, !tbaa !23
  br label %_ZNK6vectorIP3aigLb0EjE5emptyEv.exit.i.i.i.preheader

_ZN11aig_manager3imp12dec_ref_coreEP3aig.exit.i.i: ; preds = %4
  br i1 %16, label %_ZN11aig_manager3imp7dec_refERK7aig_lit.exit, label %_ZNK6vectorIP3aigLb0EjE5emptyEv.exit.i.i.i.preheader

_ZNK6vectorIP3aigLb0EjE5emptyEv.exit.i.i.i.preheader: ; preds = %_ZN11aig_manager3imp12dec_ref_coreEP3aig.exit.i.i, %_ZN11aig_manager3imp12dec_ref_coreEP3aig.exit.thread.i.i
  %.ph = phi ptr [ %15, %_ZN11aig_manager3imp12dec_ref_coreEP3aig.exit.i.i ], [ %26, %_ZN11aig_manager3imp12dec_ref_coreEP3aig.exit.thread.i.i ]
  br label %_ZNK6vectorIP3aigLb0EjE5emptyEv.exit.i.i.i

_ZNK6vectorIP3aigLb0EjE5emptyEv.exit.i.i.i:       ; preds = %_ZNK6vectorIP3aigLb0EjE5emptyEv.exit.i.i.i.preheader, %.noexc1
  %31 = phi ptr [ %39, %.noexc1 ], [ %.ph, %_ZNK6vectorIP3aigLb0EjE5emptyEv.exit.i.i.i.preheader ]
  %32 = getelementptr inbounds i8, ptr %31, i64 -4
  %33 = load i32, ptr %32, align 4, !tbaa !23
  %34 = icmp eq i32 %33, 0
  br i1 %34, label %_ZN11aig_manager3imp7dec_refERK7aig_lit.exit, label %_ZN6vectorIP3aigLb0EjE4backEv.exit.i.i.i

_ZN6vectorIP3aigLb0EjE4backEv.exit.i.i.i:         ; preds = %_ZNK6vectorIP3aigLb0EjE5emptyEv.exit.i.i.i
  %35 = add i32 %33, -1
  %36 = zext i32 %35 to i64
  %37 = getelementptr inbounds nuw ptr, ptr %31, i64 %36
  %38 = load ptr, ptr %37, align 8, !tbaa !24
  store i32 %35, ptr %32, align 4, !tbaa !23
  invoke void @_ZN11aig_manager3imp11delete_nodeEP3aig(ptr noundef nonnull align 8 dereferenceable(680) %6, ptr noundef %38)
          to label %.noexc1 unwind label %.loopexit

.noexc1:                                          ; preds = %_ZN6vectorIP3aigLb0EjE4backEv.exit.i.i.i
  %39 = load ptr, ptr %14, align 8, !tbaa !19
  %40 = icmp eq ptr %39, null
  br i1 %40, label %_ZN11aig_manager3imp7dec_refERK7aig_lit.exit, label %_ZNK6vectorIP3aigLb0EjE5emptyEv.exit.i.i.i, !llvm.loop !25

_ZN11aig_manager3imp7dec_refERK7aig_lit.exit:     ; preds = %_ZNK6vectorIP3aigLb0EjE5emptyEv.exit.i.i.i, %.noexc1, %_ZN11aig_manager3imp12dec_ref_coreEP3aig.exit.i.i, %1
  ret void

.loopexit:                                        ; preds = %_ZN6vectorIP3aigLb0EjE4backEv.exit.i.i.i
  %lpad.loopexit = landingpad { ptr, i32 }
          catch ptr null
  br label %41

.loopexit.split-lp:                               ; preds = %24
  %lpad.loopexit.split-lp = landingpad { ptr, i32 }
          catch ptr null
  br label %41

41:                                               ; preds = %.loopexit.split-lp, %.loopexit
  %lpad.phi = phi { ptr, i32 } [ %lpad.loopexit, %.loopexit ], [ %lpad.loopexit.split-lp, %.loopexit.split-lp ]
  %42 = extractvalue { ptr, i32 } %lpad.phi, 0
  tail call void @__clang_call_terminate(ptr %42) #26
  unreachable
}